; Function Attrs: mustprogress uwtable
define noundef zeroext i1 @_ZN2cv15ImageCollection4Impl7advanceEv(ptr noundef nonnull align 8 captures(none) dereferenceable(104) %0) local_unnamed_addr #4 align 2 {
  %2 = getelementptr inbounds nuw i8, ptr %0, i64 56
  %3 = load i32, ptr %2, align 8, !tbaa !264
  %4 = add nsw i32 %3, 1
  store i32 %4, ptr %2, align 8, !tbaa !264
  %5 = getelementptr inbounds nuw i8, ptr %0, i64 88
  %6 = load ptr, ptr %5, align 8, !tbaa !14
  %7 = load ptr, ptr %6, align 8, !tbaa !25
  %8 = getelementptr inbounds nuw i8, ptr %7, i64 72
  %9 = load ptr, ptr %8, align 8
  %10 = tail call noundef zeroext i1 %9(ptr noundef nonnull align 8 dereferenceable(368) %6)
  ret i1 %10
}